target datalayout = "e-m:e-p270:32:32-p271:32:32-p272:64:64-i64:64-i128:128-f80:128-n8:16:32:64-S128"
target triple = "x86_64-pc-linux-gnu"

; Function Attrs: mustprogress nounwind uwtable
define linkonce_odr void @_ZN18duckdb_fastpforlib8internal10Unroller16ILt2ELt15EE4PackEPKtPt(ptr noalias noundef %0, ptr noalias noundef %1) #0 comdat align 2 {
  %3 = alloca ptr, align 8
  %4 = alloca ptr, align 8
  store ptr %0, ptr %3, align 8, !tbaa !11
  store ptr %1, ptr %4, align 8, !tbaa !11
  %5 = load ptr, ptr %3, align 8, !tbaa !11
  %6 = getelementptr inbounds i16, ptr %5, i64 15
  %7 = load i16, ptr %6, align 2, !tbaa !13
  %8 = zext i16 %7 to i32
  %9 = shl i32 %8, 14
  %10 = load ptr, ptr %4, align 8, !tbaa !11
  %11 = load i16, ptr %10, align 2, !tbaa !13
  %12 = zext i16 %11 to i32
  %13 = or i32 %12, %9
  %14 = trunc i32 %13 to i16
  store i16 %14, ptr %10, align 2, !tbaa !13
  ret void
}

; Function Attrs: mustprogress uwtable
define linkonce_odr void @_ZN18duckdb_fastpforlib8internal10Unroller16ILt2ELt14EE4PackEPKtPt(ptr noalias noundef %0, ptr noalias noundef %1) #2 comdat align 2 {
  %3 = alloca ptr, align 8
  %4 = alloca ptr, align 8
  store ptr %0, ptr %3, align 8, !tbaa !11
  store ptr %1, ptr %4, align 8, !tbaa !11
  %5 = load ptr, ptr %3, align 8, !tbaa !11
  %6 = getelementptr inbounds nuw i16, ptr %5, i64 14
  %7 = load i16, ptr %6, align 2, !tbaa !13
  %8 = load ptr, ptr %4, align 8, !tbaa !11
  call void @_ZN18duckdb_fastpforlib8internal14pack_single_inItLt2ELt12ETnT_Lt3ELh16EEENSt9enable_ifIXltplT0_T1_T3_EvE4typeES2_PS2_(i16 noundef zeroext %7, ptr noundef %8)
  %9 = load ptr, ptr %3, align 8, !tbaa !11
  %10 = load ptr, ptr %4, align 8, !tbaa !11
  call void @_ZN18duckdb_fastpforlib8internal10Unroller16ILt2ELt15EE4PackEPKtPt(ptr noundef %9, ptr noundef %10)
  ret void
}

; Function Attrs: mustprogress uwtable
define linkonce_odr void @_ZN18duckdb_fastpforlib8internal10Unroller16ILt2ELt13EE4PackEPKtPt(ptr noalias noundef %0, ptr noalias noundef %1) #2 comdat align 2 {
  %3 = alloca ptr, align 8
  %4 = alloca ptr, align 8
  store ptr %0, ptr %3, align 8, !tbaa !11
  store ptr %1, ptr %4, align 8, !tbaa !11
  %5 = load ptr, ptr %3, align 8, !tbaa !11
  %6 = getelementptr inbounds nuw i16, ptr %5, i64 13
  %7 = load i16, ptr %6, align 2, !tbaa !13
  %8 = load ptr, ptr %4, align 8, !tbaa !11
  call void @_ZN18duckdb_fastpforlib8internal14pack_single_inItLt2ELt10ETnT_Lt3ELh16EEENSt9enable_ifIXltplT0_T1_T3_EvE4typeES2_PS2_(i16 noundef zeroext %7, ptr noundef %8)
  %9 = load ptr, ptr %3, align 8, !tbaa !11
  %10 = load ptr, ptr %4, align 8, !tbaa !11
  call void @_ZN18duckdb_fastpforlib8internal10Unroller16ILt2ELt14EE4PackEPKtPt(ptr noundef %9, ptr noundef %10)
  ret void
}

; Function Attrs: mustprogress uwtable
define linkonce_odr void @_ZN18duckdb_fastpforlib8internal10Unroller16ILt2ELt12EE4PackEPKtPt(ptr noalias noundef %0, ptr noalias noundef %1) #2 comdat align 2 {
  %3 = alloca ptr, align 8
  %4 = alloca ptr, align 8
  store ptr %0, ptr %3, align 8, !tbaa !11
  store ptr %1, ptr %4, align 8, !tbaa !11
  %5 = load ptr, ptr %3, align 8, !tbaa !11
  %6 = getelementptr inbounds nuw i16, ptr %5, i64 12
  %7 = load i16, ptr %6, align 2, !tbaa !13
  %8 = load ptr, ptr %4, align 8, !tbaa !11
  call void @_ZN18duckdb_fastpforlib8internal14pack_single_inItLt2ELt8ETnT_Lt3ELh16EEENSt9enable_ifIXltplT0_T1_T3_EvE4typeES2_PS2_(i16 noundef zeroext %7, ptr noundef %8)
  %9 = load ptr, ptr %3, align 8, !tbaa !11
  %10 = load ptr, ptr %4, align 8, !tbaa !11
  call void @_ZN18duckdb_fastpforlib8internal10Unroller16ILt2ELt13EE4PackEPKtPt(ptr noundef %9, ptr noundef %10)
  ret void
}

; Function Attrs: mustprogress uwtable
define linkonce_odr void @_ZN18duckdb_fastpforlib8internal10Unroller16ILt2ELt11EE4PackEPKtPt(ptr noalias noundef %0, ptr noalias noundef %1) #2 comdat align 2 {
  %3 = alloca ptr, align 8
  %4 = alloca ptr, align 8
  store ptr %0, ptr %3, align 8, !tbaa !11
  store ptr %1, ptr %4, align 8, !tbaa !11
  %5 = load ptr, ptr %3, align 8, !tbaa !11
  %6 = getelementptr inbounds nuw i16, ptr %5, i64 11
  %7 = load i16, ptr %6, align 2, !tbaa !13
  %8 = load ptr, ptr %4, align 8, !tbaa !11
  call void @_ZN18duckdb_fastpforlib8internal14pack_single_inItLt2ELt6ETnT_Lt3ELh16EEENSt9enable_ifIXltplT0_T1_T3_EvE4typeES2_PS2_(i16 noundef zeroext %7, ptr noundef %8)
  %9 = load ptr, ptr %3, align 8, !tbaa !11
  %10 = load ptr, ptr %4, align 8, !tbaa !11
  call void @_ZN18duckdb_fastpforlib8internal10Unroller16ILt2ELt12EE4PackEPKtPt(ptr noundef %9, ptr noundef %10)
  ret void
}

; Function Attrs: mustprogress uwtable
define linkonce_odr void @_ZN18duckdb_fastpforlib8internal10Unroller16ILt2ELt10EE4PackEPKtPt(ptr noalias noundef %0, ptr noalias noundef %1) #2 comdat align 2 {
  %3 = alloca ptr, align 8
  %4 = alloca ptr, align 8
  store ptr %0, ptr %3, align 8, !tbaa !11
  store ptr %1, ptr %4, align 8, !tbaa !11
  %5 = load ptr, ptr %3, align 8, !tbaa !11
  %6 = getelementptr inbounds nuw i16, ptr %5, i64 10
  %7 = load i16, ptr %6, align 2, !tbaa !13
  %8 = load ptr, ptr %4, align 8, !tbaa !11
  call void @_ZN18duckdb_fastpforlib8internal14pack_single_inItLt2ELt4ETnT_Lt3ELh16EEENSt9enable_ifIXltplT0_T1_T3_EvE4typeES2_PS2_(i16 noundef zeroext %7, ptr noundef %8)
  %9 = load ptr, ptr %3, align 8, !tbaa !11
  %10 = load ptr, ptr %4, align 8, !tbaa !11
  call void @_ZN18duckdb_fastpforlib8internal10Unroller16ILt2ELt11EE4PackEPKtPt(ptr noundef %9, ptr noundef %10)
  ret void
}

; Function Attrs: mustprogress uwtable
define linkonce_odr void @_ZN18duckdb_fastpforlib8internal10Unroller16ILt2ELt9EE4PackEPKtPt(ptr noalias noundef %0, ptr noalias noundef %1) #2 comdat align 2 {
  %3 = alloca ptr, align 8
  %4 = alloca ptr, align 8
  store ptr %0, ptr %3, align 8, !tbaa !11
  store ptr %1, ptr %4, align 8, !tbaa !11
  %5 = load ptr, ptr %3, align 8, !tbaa !11
  %6 = getelementptr inbounds nuw i16, ptr %5, i64 9
  %7 = load i16, ptr %6, align 2, !tbaa !13
  %8 = load ptr, ptr %4, align 8, !tbaa !11
  call void @_ZN18duckdb_fastpforlib8internal14pack_single_inItLt2ELt2ETnT_Lt3ELh16EEENSt9enable_ifIXltplT0_T1_T3_EvE4typeES2_PS2_(i16 noundef zeroext %7, ptr noundef %8)
  %9 = load ptr, ptr %3, align 8, !tbaa !11
  %10 = load ptr, ptr %4, align 8, !tbaa !11
  call void @_ZN18duckdb_fastpforlib8internal10Unroller16ILt2ELt10EE4PackEPKtPt(ptr noundef %9, ptr noundef %10)
  ret void
}

; Function Attrs: mustprogress uwtable
define linkonce_odr void @_ZN18duckdb_fastpforlib8internal10Unroller16ILt2ELt8EE4PackEPKtPt(ptr noalias noundef %0, ptr noalias noundef %1) #2 comdat align 2 {
  %3 = alloca ptr, align 8
  %4 = alloca ptr, align 8
  store ptr %0, ptr %3, align 8, !tbaa !11
  store ptr %1, ptr %4, align 8, !tbaa !11
  %5 = load ptr, ptr %3, align 8, !tbaa !11
  %6 = getelementptr inbounds nuw i16, ptr %5, i64 8
  %7 = load i16, ptr %6, align 2, !tbaa !13
  %8 = load ptr, ptr %4, align 8, !tbaa !11
  call void @_ZN18duckdb_fastpforlib8internal14pack_single_inItLt2ELt0ETnT_Lt3ELh16EEENSt9enable_ifIXltplT0_T1_T3_EvE4typeES2_PS2_(i16 noundef zeroext %7, ptr noundef %8)
  %9 = load ptr, ptr %3, align 8, !tbaa !11
  %10 = load ptr, ptr %4, align 8, !tbaa !11
  call void @_ZN18duckdb_fastpforlib8internal10Unroller16ILt2ELt9EE4PackEPKtPt(ptr noundef %9, ptr noundef %10)
  ret void
}

; Function Attrs: mustprogress nounwind uwtable
define linkonce_odr void @_ZN18duckdb_fastpforlib8internal14pack_single_inItLt2ELt14ETnT_Lt3ELh16EEENSt9enable_ifIXgeplT0_T1_T3_EvE4typeES2_RrPS2_(i16 noundef zeroext %0, ptr noundef nonnull align 8 dereferenceable(8) %1) #0 comdat {
  %3 = alloca i16, align 2
  %4 = alloca ptr, align 8
  store i16 %0, ptr %3, align 2, !tbaa !13
  store ptr %1, ptr %4, align 8, !tbaa !31
  %5 = load i16, ptr %3, align 2, !tbaa !13
  %6 = zext i16 %5 to i32
  %7 = shl i32 %6, 14
  %8 = load ptr, ptr %4, align 8, !tbaa !31
  %9 = load ptr, ptr %8, align 8, !tbaa !11
  %10 = load i16, ptr %9, align 2, !tbaa !13
  %11 = zext i16 %10 to i32
  %12 = or i32 %11, %7
  %13 = trunc i32 %12 to i16
  store i16 %13, ptr %9, align 2, !tbaa !13
  %14 = load ptr, ptr %4, align 8, !tbaa !31
  %15 = load ptr, ptr %14, align 8, !tbaa !11
  %16 = getelementptr inbounds nuw i16, ptr %15, i32 1
  store ptr %16, ptr %14, align 8, !tbaa !11
  ret void
}

; Function Attrs: mustprogress uwtable
define linkonce_odr void @_ZN18duckdb_fastpforlib8internal10Unroller16ILt2ELt7EE4PackEPKtPt(ptr noalias noundef %0, ptr noalias noundef %1) #2 comdat align 2 {
  %3 = alloca ptr, align 8
  %4 = alloca ptr, align 8
  store ptr %0, ptr %3, align 8, !tbaa !11
  store ptr %1, ptr %4, align 8, !tbaa !11
  %5 = load ptr, ptr %3, align 8, !tbaa !11
  %6 = getelementptr inbounds nuw i16, ptr %5, i64 7
  %7 = load i16, ptr %6, align 2, !tbaa !13
  call void @_ZN18duckdb_fastpforlib8internal14pack_single_inItLt2ELt14ETnT_Lt3ELh16EEENSt9enable_ifIXgeplT0_T1_T3_EvE4typeES2_RrPS2_(i16 noundef zeroext %7, ptr noundef nonnull align 8 dereferenceable(8) %4)
  %8 = load ptr, ptr %3, align 8, !tbaa !11
  %9 = load ptr, ptr %4, align 8, !tbaa !11
  call void @_ZN18duckdb_fastpforlib8internal10Unroller16ILt2ELt8EE4PackEPKtPt(ptr noundef %8, ptr noundef %9)
  ret void
}

; Function Attrs: mustprogress nounwind uwtable
define linkonce_odr void @_ZN18duckdb_fastpforlib8internal14pack_single_inItLt2ELt12ETnT_Lt3ELh16EEENSt9enable_ifIXltplT0_T1_T3_EvE4typeES2_PS2_(i16 noundef zeroext %0, ptr noalias noundef %1) #0 comdat {
  %3 = alloca i16, align 2
  %4 = alloca ptr, align 8
  store i16 %0, ptr %3, align 2, !tbaa !13
  store ptr %1, ptr %4, align 8, !tbaa !11
  %5 = load i16, ptr %3, align 2, !tbaa !13
  %6 = zext i16 %5 to i32
  %7 = and i32 %6, 3
  %8 = shl i32 %7, 12
  %9 = load ptr, ptr %4, align 8, !tbaa !11
  %10 = load i16, ptr %9, align 2, !tbaa !13
  %11 = zext i16 %10 to i32
  %12 = or i32 %11, %8
  %13 = trunc i32 %12 to i16
  store i16 %13, ptr %9, align 2, !tbaa !13
  ret void
}

; Function Attrs: mustprogress uwtable
define linkonce_odr void @_ZN18duckdb_fastpforlib8internal10Unroller16ILt2ELt6EE4PackEPKtPt(ptr noalias noundef %0, ptr noalias noundef %1) #2 comdat align 2 {
  %3 = alloca ptr, align 8
  %4 = alloca ptr, align 8
  store ptr %0, ptr %3, align 8, !tbaa !11
  store ptr %1, ptr %4, align 8, !tbaa !11
  %5 = load ptr, ptr %3, align 8, !tbaa !11
  %6 = getelementptr inbounds nuw i16, ptr %5, i64 6
  %7 = load i16, ptr %6, align 2, !tbaa !13
  %8 = load ptr, ptr %4, align 8, !tbaa !11
  call void @_ZN18duckdb_fastpforlib8internal14pack_single_inItLt2ELt12ETnT_Lt3ELh16EEENSt9enable_ifIXltplT0_T1_T3_EvE4typeES2_PS2_(i16 noundef zeroext %7, ptr noundef %8)
  %9 = load ptr, ptr %3, align 8, !tbaa !11
  %10 = load ptr, ptr %4, align 8, !tbaa !11
  call void @_ZN18duckdb_fastpforlib8internal10Unroller16ILt2ELt7EE4PackEPKtPt(ptr noundef %9, ptr noundef %10)
  ret void
}

; Function Attrs: mustprogress nounwind uwtable
define linkonce_odr void @_ZN18duckdb_fastpforlib8internal14pack_single_inItLt2ELt10ETnT_Lt3ELh16EEENSt9enable_ifIXltplT0_T1_T3_EvE4typeES2_PS2_(i16 noundef zeroext %0, ptr noalias noundef %1) #0 comdat {
  %3 = alloca i16, align 2
  %4 = alloca ptr, align 8
  store i16 %0, ptr %3, align 2, !tbaa !13
  store ptr %1, ptr %4, align 8, !tbaa !11
  %5 = load i16, ptr %3, align 2, !tbaa !13
  %6 = zext i16 %5 to i32
  %7 = and i32 %6, 3
  %8 = shl i32 %7, 10
  %9 = load ptr, ptr %4, align 8, !tbaa !11
  %10 = load i16, ptr %9, align 2, !tbaa !13
  %11 = zext i16 %10 to i32
  %12 = or i32 %11, %8
  %13 = trunc i32 %12 to i16
  store i16 %13, ptr %9, align 2, !tbaa !13
  ret void
}

; Function Attrs: mustprogress uwtable
define linkonce_odr void @_ZN18duckdb_fastpforlib8internal10Unroller16ILt2ELt5EE4PackEPKtPt(ptr noalias noundef %0, ptr noalias noundef %1) #2 comdat align 2 {
  %3 = alloca ptr, align 8
  %4 = alloca ptr, align 8
  store ptr %0, ptr %3, align 8, !tbaa !11
  store ptr %1, ptr %4, align 8, !tbaa !11
  %5 = load ptr, ptr %3, align 8, !tbaa !11
  %6 = getelementptr inbounds nuw i16, ptr %5, i64 5
  %7 = load i16, ptr %6, align 2, !tbaa !13
  %8 = load ptr, ptr %4, align 8, !tbaa !11
  call void @_ZN18duckdb_fastpforlib8internal14pack_single_inItLt2ELt10ETnT_Lt3ELh16EEENSt9enable_ifIXltplT0_T1_T3_EvE4typeES2_PS2_(i16 noundef zeroext %7, ptr noundef %8)
  %9 = load ptr, ptr %3, align 8, !tbaa !11
  %10 = load ptr, ptr %4, align 8, !tbaa !11
  call void @_ZN18duckdb_fastpforlib8internal10Unroller16ILt2ELt6EE4PackEPKtPt(ptr noundef %9, ptr noundef %10)
  ret void
}

; Function Attrs: mustprogress nounwind uwtable
define linkonce_odr void @_ZN18duckdb_fastpforlib8internal14pack_single_inItLt2ELt8ETnT_Lt3ELh16EEENSt9enable_ifIXltplT0_T1_T3_EvE4typeES2_PS2_(i16 noundef zeroext %0, ptr noalias noundef %1) #0 comdat {
  %3 = alloca i16, align 2
  %4 = alloca ptr, align 8
  store i16 %0, ptr %3, align 2, !tbaa !13
  store ptr %1, ptr %4, align 8, !tbaa !11
  %5 = load i16, ptr %3, align 2, !tbaa !13
  %6 = zext i16 %5 to i32
  %7 = and i32 %6, 3
  %8 = shl i32 %7, 8
  %9 = load ptr, ptr %4, align 8, !tbaa !11
  %10 = load i16, ptr %9, align 2, !tbaa !13
  %11 = zext i16 %10 to i32
  %12 = or i32 %11, %8
  %13 = trunc i32 %12 to i16
  store i16 %13, ptr %9, align 2, !tbaa !13
  ret void
}

; Function Attrs: mustprogress uwtable
define linkonce_odr void @_ZN18duckdb_fastpforlib8internal10Unroller16ILt2ELt4EE4PackEPKtPt(ptr noalias noundef %0, ptr noalias noundef %1) #2 comdat align 2 {
  %3 = alloca ptr, align 8
  %4 = alloca ptr, align 8
  store ptr %0, ptr %3, align 8, !tbaa !11
  store ptr %1, ptr %4, align 8, !tbaa !11
  %5 = load ptr, ptr %3, align 8, !tbaa !11
  %6 = getelementptr inbounds nuw i16, ptr %5, i64 4
  %7 = load i16, ptr %6, align 2, !tbaa !13
  %8 = load ptr, ptr %4, align 8, !tbaa !11
  call void @_ZN18duckdb_fastpforlib8internal14pack_single_inItLt2ELt8ETnT_Lt3ELh16EEENSt9enable_ifIXltplT0_T1_T3_EvE4typeES2_PS2_(i16 noundef zeroext %7, ptr noundef %8)
  %9 = load ptr, ptr %3, align 8, !tbaa !11
  %10 = load ptr, ptr %4, align 8, !tbaa !11
  call void @_ZN18duckdb_fastpforlib8internal10Unroller16ILt2ELt5EE4PackEPKtPt(ptr noundef %9, ptr noundef %10)
  ret void
}

; Function Attrs: mustprogress nounwind uwtable
define linkonce_odr void @_ZN18duckdb_fastpforlib8internal14pack_single_inItLt2ELt6ETnT_Lt3ELh16EEENSt9enable_ifIXltplT0_T1_T3_EvE4typeES2_PS2_(i16 noundef zeroext %0, ptr noalias noundef %1) #0 comdat {
  %3 = alloca i16, align 2
  %4 = alloca ptr, align 8
  store i16 %0, ptr %3, align 2, !tbaa !13
  store ptr %1, ptr %4, align 8, !tbaa !11
  %5 = load i16, ptr %3, align 2, !tbaa !13
  %6 = zext i16 %5 to i32
  %7 = and i32 %6, 3
  %8 = shl i32 %7, 6
  %9 = load ptr, ptr %4, align 8, !tbaa !11
  %10 = load i16, ptr %9, align 2, !tbaa !13
  %11 = zext i16 %10 to i32
  %12 = or i32 %11, %8
  %13 = trunc i32 %12 to i16
  store i16 %13, ptr %9, align 2, !tbaa !13
  ret void
}

; Function Attrs: mustprogress uwtable
define linkonce_odr void @_ZN18duckdb_fastpforlib8internal10Unroller16ILt2ELt3EE4PackEPKtPt(ptr noalias noundef %0, ptr noalias noundef %1) #2 comdat align 2 {
  %3 = alloca ptr, align 8
  %4 = alloca ptr, align 8
  store ptr %0, ptr %3, align 8, !tbaa !11
  store ptr %1, ptr %4, align 8, !tbaa !11
  %5 = load ptr, ptr %3, align 8, !tbaa !11
  %6 = getelementptr inbounds nuw i16, ptr %5, i64 3
  %7 = load i16, ptr %6, align 2, !tbaa !13
  %8 = load ptr, ptr %4, align 8, !tbaa !11
  call void @_ZN18duckdb_fastpforlib8internal14pack_single_inItLt2ELt6ETnT_Lt3ELh16EEENSt9enable_ifIXltplT0_T1_T3_EvE4typeES2_PS2_(i16 noundef zeroext %7, ptr noundef %8)
  %9 = load ptr, ptr %3, align 8, !tbaa !11
  %10 = load ptr, ptr %4, align 8, !tbaa !11
  call void @_ZN18duckdb_fastpforlib8internal10Unroller16ILt2ELt4EE4PackEPKtPt(ptr noundef %9, ptr noundef %10)
  ret void
}

; Function Attrs: mustprogress nounwind uwtable
define linkonce_odr void @_ZN18duckdb_fastpforlib8internal14pack_single_inItLt2ELt4ETnT_Lt3ELh16EEENSt9enable_ifIXltplT0_T1_T3_EvE4typeES2_PS2_(i16 noundef zeroext %0, ptr noalias noundef %1) #0 comdat {
  %3 = alloca i16, align 2
  %4 = alloca ptr, align 8
  store i16 %0, ptr %3, align 2, !tbaa !13
  store ptr %1, ptr %4, align 8, !tbaa !11
  %5 = load i16, ptr %3, align 2, !tbaa !13
  %6 = zext i16 %5 to i32
  %7 = and i32 %6, 3
  %8 = shl i32 %7, 4
  %9 = load ptr, ptr %4, align 8, !tbaa !11
  %10 = load i16, ptr %9, align 2, !tbaa !13
  %11 = zext i16 %10 to i32
  %12 = or i32 %11, %8
  %13 = trunc i32 %12 to i16
  store i16 %13, ptr %9, align 2, !tbaa !13
  ret void
}

; Function Attrs: mustprogress uwtable
define linkonce_odr void @_ZN18duckdb_fastpforlib8internal10Unroller16ILt2ELt2EE4PackEPKtPt(ptr noalias noundef %0, ptr noalias noundef %1) #2 comdat align 2 {
  %3 = alloca ptr, align 8
  %4 = alloca ptr, align 8
  store ptr %0, ptr %3, align 8, !tbaa !11
  store ptr %1, ptr %4, align 8, !tbaa !11
  %5 = load ptr, ptr %3, align 8, !tbaa !11
  %6 = getelementptr inbounds nuw i16, ptr %5, i64 2
  %7 = load i16, ptr %6, align 2, !tbaa !13
  %8 = load ptr, ptr %4, align 8, !tbaa !11
  call void @_ZN18duckdb_fastpforlib8internal14pack_single_inItLt2ELt4ETnT_Lt3ELh16EEENSt9enable_ifIXltplT0_T1_T3_EvE4typeES2_PS2_(i16 noundef zeroext %7, ptr noundef %8)
  %9 = load ptr, ptr %3, align 8, !tbaa !11
  %10 = load ptr, ptr %4, align 8, !tbaa !11
  call void @_ZN18duckdb_fastpforlib8internal10Unroller16ILt2ELt3EE4PackEPKtPt(ptr noundef %9, ptr noundef %10)
  ret void
}

; Function Attrs: mustprogress nounwind uwtable
define linkonce_odr void @_ZN18duckdb_fastpforlib8internal14pack_single_inItLt2ELt2ETnT_Lt3ELh16EEENSt9enable_ifIXltplT0_T1_T3_EvE4typeES2_PS2_(i16 noundef zeroext %0, ptr noalias noundef %1) #0 comdat {
  %3 = alloca i16, align 2
  %4 = alloca ptr, align 8
  store i16 %0, ptr %3, align 2, !tbaa !13
  store ptr %1, ptr %4, align 8, !tbaa !11
  %5 = load i16, ptr %3, align 2, !tbaa !13
  %6 = zext i16 %5 to i32
  %7 = and i32 %6, 3
  %8 = shl i32 %7, 2
  %9 = load ptr, ptr %4, align 8, !tbaa !11
  %10 = load i16, ptr %9, align 2, !tbaa !13
  %11 = zext i16 %10 to i32
  %12 = or i32 %11, %8
  %13 = trunc i32 %12 to i16
  store i16 %13, ptr %9, align 2, !tbaa !13
  ret void
}

; Function Attrs: mustprogress uwtable
define linkonce_odr void @_ZN18duckdb_fastpforlib8internal10Unroller16ILt2ELt1EE4PackEPKtPt(ptr noalias noundef %0, ptr noalias noundef %1) #2 comdat align 2 {
  %3 = alloca ptr, align 8
  %4 = alloca ptr, align 8
  store ptr %0, ptr %3, align 8, !tbaa !11
  store ptr %1, ptr %4, align 8, !tbaa !11
  %5 = load ptr, ptr %3, align 8, !tbaa !11
  %6 = getelementptr inbounds nuw i16, ptr %5, i64 1
  %7 = load i16, ptr %6, align 2, !tbaa !13
  %8 = load ptr, ptr %4, align 8, !tbaa !11
  call void @_ZN18duckdb_fastpforlib8internal14pack_single_inItLt2ELt2ETnT_Lt3ELh16EEENSt9enable_ifIXltplT0_T1_T3_EvE4typeES2_PS2_(i16 noundef zeroext %7, ptr noundef %8)
  %9 = load ptr, ptr %3, align 8, !tbaa !11
  %10 = load ptr, ptr %4, align 8, !tbaa !11
  call void @_ZN18duckdb_fastpforlib8internal10Unroller16ILt2ELt2EE4PackEPKtPt(ptr noundef %9, ptr noundef %10)
  ret void
}

; Function Attrs: mustprogress nounwind uwtable
define linkonce_odr void @_ZN18duckdb_fastpforlib8internal14pack_single_inItLt2ELt0ETnT_Lt3ELh16EEENSt9enable_ifIXltplT0_T1_T3_EvE4typeES2_PS2_(i16 noundef zeroext %0, ptr noalias noundef %1) #0 comdat {
  %3 = alloca i16, align 2
  %4 = alloca ptr, align 8
  store i16 %0, ptr %3, align 2, !tbaa !13
  store ptr %1, ptr %4, align 8, !tbaa !11
  %5 = load i16, ptr %3, align 2, !tbaa !13
  %6 = zext i16 %5 to i32
  %7 = and i32 %6, 3
  %8 = trunc i32 %7 to i16
  %9 = load ptr, ptr %4, align 8, !tbaa !11
  store i16 %8, ptr %9, align 2, !tbaa !13
  ret void
}

; Function Attrs: mustprogress uwtable
define linkonce_odr void @_ZN18duckdb_fastpforlib8internal10Unroller16ILt2ELt0EE4PackEPKtPt(ptr noalias noundef %0, ptr noalias noundef %1) #2 comdat align 2 {
  %3 = alloca ptr, align 8
  %4 = alloca ptr, align 8
  store ptr %0, ptr %3, align 8, !tbaa !11
  store ptr %1, ptr %4, align 8, !tbaa !11
  %5 = load ptr, ptr %3, align 8, !tbaa !11
  %6 = getelementptr inbounds nuw i16, ptr %5, i64 0
  %7 = load i16, ptr %6, align 2, !tbaa !13
  %8 = load ptr, ptr %4, align 8, !tbaa !11
  call void @_ZN18duckdb_fastpforlib8internal14pack_single_inItLt2ELt0ETnT_Lt3ELh16EEENSt9enable_ifIXltplT0_T1_T3_EvE4typeES2_PS2_(i16 noundef zeroext %7, ptr noundef %8)
  %9 = load ptr, ptr %3, align 8, !tbaa !11
  %10 = load ptr, ptr %4, align 8, !tbaa !11
  call void @_ZN18duckdb_fastpforlib8internal10Unroller16ILt2ELt1EE4PackEPKtPt(ptr noundef %9, ptr noundef %10)
  ret void
}

; Function Attrs: mustprogress uwtable
define void @_ZN18duckdb_fastpforlib8internal11__fastpack2EPKtPt(ptr noalias noundef %0, ptr noalias noundef %1) #2 {
  %3 = alloca ptr, align 8
  %4 = alloca ptr, align 8
  store ptr %0, ptr %3, align 8, !tbaa !11
  store ptr %1, ptr %4, align 8, !tbaa !11
  %5 = load ptr, ptr %3, align 8, !tbaa !11
  %6 = load ptr, ptr %4, align 8, !tbaa !11
  call void @_ZN18duckdb_fastpforlib8internal10Unroller16ILt2ELt0EE4PackEPKtPt(ptr noundef %5, ptr noundef %6)
  ret void
}