; Function Attrs: mustprogress nofree norecurse nosync nounwind willreturn memory(argmem: readwrite, inaccessiblemem: readwrite) uwtable
define void @_ZN18duckdb_fastpforlib8internal11__fastpack2EPKtPt(ptr noalias noundef readonly captures(none) %0, ptr noalias noundef writeonly captures(none) initializes((0, 4)) %1) local_unnamed_addr #2 {
  tail call void @llvm.experimental.noalias.scope.decl(metadata !9348)
  tail call void @llvm.experimental.noalias.scope.decl(metadata !9351)
  %3 = load i16, ptr %0, align 2, !tbaa !3, !alias.scope !9348, !noalias !9351
  %4 = and i16 %3, 3
  tail call void @llvm.experimental.noalias.scope.decl(metadata !9353)
  tail call void @llvm.experimental.noalias.scope.decl(metadata !9356)
  %5 = getelementptr inbounds nuw i8, ptr %0, i64 2
  %6 = load i16, ptr %5, align 2, !tbaa !3, !alias.scope !9358, !noalias !9359
  %7 = shl i16 %6, 2
  %8 = and i16 %7, 12
  %9 = or disjoint i16 %4, %8
  tail call void @llvm.experimental.noalias.scope.decl(metadata !9360)
  tail call void @llvm.experimental.noalias.scope.decl(metadata !9363)
  %10 = getelementptr inbounds nuw i8, ptr %0, i64 4
  %11 = load i16, ptr %10, align 2, !tbaa !3, !alias.scope !9365, !noalias !9366
  %12 = shl i16 %11, 4
  %13 = and i16 %12, 48
  tail call void @llvm.experimental.noalias.scope.decl(metadata !9367)
  tail call void @llvm.experimental.noalias.scope.decl(metadata !9370)
  %14 = getelementptr inbounds nuw i8, ptr %0, i64 6
  %15 = load i16, ptr %14, align 2, !tbaa !3, !alias.scope !9372, !noalias !9373
  %16 = shl i16 %15, 6
  %17 = and i16 %16, 192
  tail call void @llvm.experimental.noalias.scope.decl(metadata !9374)
  tail call void @llvm.experimental.noalias.scope.decl(metadata !9377)
  %18 = getelementptr inbounds nuw i8, ptr %0, i64 8
  %19 = load i16, ptr %18, align 2, !tbaa !3, !alias.scope !9379, !noalias !9380
  %20 = shl i16 %19, 8
  %21 = and i16 %20, 768
  tail call void @llvm.experimental.noalias.scope.decl(metadata !9381)
  tail call void @llvm.experimental.noalias.scope.decl(metadata !9384)
  %22 = getelementptr inbounds nuw i8, ptr %0, i64 10
  %23 = load i16, ptr %22, align 2, !tbaa !3, !alias.scope !9386, !noalias !9387
  %24 = shl i16 %23, 10
  %25 = and i16 %24, 3072
  tail call void @llvm.experimental.noalias.scope.decl(metadata !9388)
  tail call void @llvm.experimental.noalias.scope.decl(metadata !9391)
  %26 = getelementptr inbounds nuw i8, ptr %0, i64 12
  %27 = load i16, ptr %26, align 2, !tbaa !3, !alias.scope !9393, !noalias !9394
  %28 = shl i16 %27, 12
  %29 = and i16 %28, 12288
  tail call void @llvm.experimental.noalias.scope.decl(metadata !9395)
  tail call void @llvm.experimental.noalias.scope.decl(metadata !9398)
  %30 = getelementptr inbounds nuw i8, ptr %0, i64 14
  %31 = load i16, ptr %30, align 2, !tbaa !3, !alias.scope !9400, !noalias !9401
  %32 = shl i16 %31, 14
  %33 = or disjoint i16 %32, %29
  %34 = or disjoint i16 %33, %25
  %35 = or disjoint i16 %34, %21
  %36 = or disjoint i16 %35, %17
  %37 = or disjoint i16 %36, %13
  %38 = or disjoint i16 %37, %9
  store i16 %38, ptr %1, align 2, !tbaa !3, !alias.scope !9401, !noalias !9400
  %39 = getelementptr inbounds nuw i8, ptr %1, i64 2
  tail call void @llvm.experimental.noalias.scope.decl(metadata !9402)
  tail call void @llvm.experimental.noalias.scope.decl(metadata !9405)
  %40 = getelementptr inbounds nuw i8, ptr %0, i64 16
  %41 = load i16, ptr %40, align 2, !tbaa !3, !alias.scope !9407, !noalias !9408
  %42 = and i16 %41, 3
  tail call void @llvm.experimental.noalias.scope.decl(metadata !9409)
  tail call void @llvm.experimental.noalias.scope.decl(metadata !9412)
  %43 = getelementptr inbounds nuw i8, ptr %0, i64 18
  %44 = load i16, ptr %43, align 2, !tbaa !3, !alias.scope !9414, !noalias !9415
  %45 = shl i16 %44, 2
  %46 = and i16 %45, 12
  %47 = or disjoint i16 %42, %46
  tail call void @llvm.experimental.noalias.scope.decl(metadata !9416)
  tail call void @llvm.experimental.noalias.scope.decl(metadata !9419)
  %48 = getelementptr inbounds nuw i8, ptr %0, i64 20
  %49 = load i16, ptr %48, align 2, !tbaa !3, !alias.scope !9421, !noalias !9422
  %50 = shl i16 %49, 4
  %51 = and i16 %50, 48
  tail call void @llvm.experimental.noalias.scope.decl(metadata !9423)
  tail call void @llvm.experimental.noalias.scope.decl(metadata !9426)
  %52 = getelementptr inbounds nuw i8, ptr %0, i64 22
  %53 = load i16, ptr %52, align 2, !tbaa !3, !alias.scope !9428, !noalias !9429
  %54 = shl i16 %53, 6
  %55 = and i16 %54, 192
  tail call void @llvm.experimental.noalias.scope.decl(metadata !9430)
  tail call void @llvm.experimental.noalias.scope.decl(metadata !9433)
  %56 = getelementptr inbounds nuw i8, ptr %0, i64 24
  %57 = load i16, ptr %56, align 2, !tbaa !3, !alias.scope !9435, !noalias !9436
  %58 = shl i16 %57, 8
  %59 = and i16 %58, 768
  tail call void @llvm.experimental.noalias.scope.decl(metadata !9437)
  tail call void @llvm.experimental.noalias.scope.decl(metadata !9440)
  %60 = getelementptr inbounds nuw i8, ptr %0, i64 26
  %61 = load i16, ptr %60, align 2, !tbaa !3, !alias.scope !9442, !noalias !9443
  %62 = shl i16 %61, 10
  %63 = and i16 %62, 3072
  tail call void @llvm.experimental.noalias.scope.decl(metadata !9444)
  tail call void @llvm.experimental.noalias.scope.decl(metadata !9447)
  %64 = getelementptr inbounds nuw i8, ptr %0, i64 28
  %65 = load i16, ptr %64, align 2, !tbaa !3, !alias.scope !9449, !noalias !9450
  %66 = shl i16 %65, 12
  %67 = and i16 %66, 12288
  tail call void @llvm.experimental.noalias.scope.decl(metadata !9451)
  tail call void @llvm.experimental.noalias.scope.decl(metadata !9454)
  %68 = getelementptr inbounds nuw i8, ptr %0, i64 30
  %69 = load i16, ptr %68, align 2, !tbaa !3, !alias.scope !9456, !noalias !9457
  %70 = shl i16 %69, 14
  %71 = or disjoint i16 %70, %67
  %72 = or disjoint i16 %71, %63
  %73 = or disjoint i16 %72, %59
  %74 = or disjoint i16 %73, %55
  %75 = or disjoint i16 %74, %51
  %76 = or disjoint i16 %75, %47
  store i16 %76, ptr %39, align 2, !tbaa !3, !alias.scope !9457, !noalias !9456
  ret void
}